(dp1
S'output'
p2
S"<type 'exceptions.TypeError'> list indices must be integers, not dict"
p3
sS'layer'
p4
S'/usr/share/web2py/applications/imdbtvseries/views/default/search.html'
p5
sS'code'
p6
S'response.write(\'\\n<!DOCTYPE HTML>\\n\\n<html>\\n\\t<head>\\n\\t\\t<title>IMDb TV Series</title>\\n\\t\\t<meta charset="utf-8" />\\n\\t\\t<meta name="viewport" content="width=device-width, initial-scale=1, user-scalable=no" />\\n\\t\\t<link rel="stylesheet" href="\', escape=False)\nresponse.write(URL(\'static/template\',\'assets/css/main.css\'))\nresponse.write(\'" />\\n\\t</head>\\n\\t<body>\\n\\n  <div id="wrapper">\\n\\n      <div id="main">\\n        <div class="inner">\\n\\n\\n\', escape=False)\nresponse.write(\'\\n\\n\', escape=False)\nresponse.write(\'\\n\\n            <header id="header">\\n              <a class="logo">\\n                <em style="font-style: inherit;color:#424242;">\\n                \', escape=False)\nresponse.write(search_result[\'response\'][\'numFound\'])\nresponse.write(\'</em> \\n                <em style="font-style: inherit;color:#757575;">\\n                results for </em> \\n                <em style="text-transform: uppercase;font-style: inherit;color:#424242;">\', escape=False)\nresponse.write(search_result[\'responseHeader\'][\'params\'][\'q\'].split(" AND ")[-1])\nresponse.write(\'\\n                </em>\\n                \', escape=False)\nif search_result[\'response\'][\'numFound\'] > 1:\n    pass\nresponse.write(\'\\n              </a>\\n                <ul class="icons">\\n                  <li><a href="https://www.twitter.com/chnselim" class="icon fa-twitter" target="_blank"><span class="label">Twitter</span></a></li>\\n                  <li><a href="https://www.instagram.com/chnselim" class="icon fa-instagram" target="_blank"><span class="label">Instagram</span></a></li>\\n                  <li><a href="https://www.github.com/chnselim" class="icon fa-github" target="_blank"><span class="label">Github</span></a></li>\\n                </ul>\\n            </header>\\n\\n<!-- Section -->\\n<section>\\n\\n\\t<div class="posts">\\n\\t\', escape=False)\nfor i in search_result[\'response\'][\'docs\']:\n    response.write(\'\\n\\t\\t<article align="center">\\n\\t\\t\\t<a href="#" class="image"><img src="\', escape=False)\n    response.write(search_result[\'response\'][\'docs\'][i][\'image\'][0] or "")\n    response.write(\'" style="width: 45%; margin:auto;" alt="" /></a>\\n\\t\\t\\t\\n\\t\\t\\t<h3>\', escape=False)\n    response.write(search_result[\'response\'][\'docs\'][i][\'name\'] or "")\n    response.write(\'</h3>\\n\\t\\t\\t<p style="overflow: hidden;display: -webkit-box;-webkit-line-clamp: 2;-webkit-box-orient: vertical;">\', escape=False)\n    response.write(search_result[\'response\'][\'docs\'][i][\'summary\'][0] or "")\n    response.write(\'</p>\\n\\n\\t\\t\\t<ul class="actions">\\n\\t\\t\\t\\t<li><a href="" class="button">More</a></li>\\n\\t\\t\\t</ul>\\n\\n\\n\\t\\t</article>\\n\\t\', escape=False)\n    pass\nresponse.write(\'\\n\\t</div>\\n\\t\\n</section>\\n\\n<section>\\n\\t<div class="row 200%">\\n\\t\\t<div class="6u 12u$(medium)">\\n\\t\\t\\t<ul class="pagination" style="width: 100%;">\\n\\t\\t\\t\\t<li><span class="button disabled">Prev</span></li>\\n\\t\\t\\t\\t<li><a href="#" class="page active">1</a></li>\\n\\t\\t\\t\\t<li><a href="#" class="page">2</a></li>\\n\\t\\t\\t\\t<li><a href="#" class="page">3</a></li>\\n\\t\\t\\t\\t<li><span>&hellip;</span></li>\\n\\t\\t\\t\\t<li><a href="#" class="page">8</a></li>\\n\\t\\t\\t\\t<li><a href="#" class="page">9</a></li>\\n\\t\\t\\t\\t<li><a href="#" class="page">10</a></li>\\n\\t\\t\\t\\t<li><a href="#" class="button">Next</a></li>\\n\\t\\t\\t</ul>\\n\\t\\t</div>\\n\\t</div>\\n</section>\\n\\t\\n</div>\\n</div>\\n\\n<!-- Sidebar -->\\n<div id="sidebar">\\n<div class="inner">\\n<!-- Menu -->\\n<nav id="menu">\\n\\n\\t<header class="">\\n\\t\\t<h2>Search & Filter</h2><hr>\\n\\t</header>\\n\\n\\t<!-- Form -->\\n\\t\\t<form method="post" action="\', escape=False)\nresponse.write(URL(\'default\', \'search\'))\nresponse.write(\'">\\n\\t\\t\\t<div class="row uniform">\\n\\t\\t\\t\\t<div class="12u$ 12u$(xsmall)">\\n\\t\\t\\t\\t\\t<input type="text" name="q" id="demo-name" value="" placeholder="Search" />\\n\\t\\t\\t\\t</div>\\n\\t\\t\\t\\t<!-- Break -->\\n\\t\\t\\t\\t<div class="12u$">\\n\\t\\t\\t\\t\\t<div class="select-wrapper">\\n\\t\\t\\t\\t\\t\\t<select name="catQuery" id="demo-category">\\n\\t\\t\\t\\t\\t\\t\\t<option value="">- Category -</option>\\n\\t\\t\\t\\t\\t\\t\\t<option value="1">Action</option>\\n\\t\\t\\t\\t\\t\\t\\t<option value="2">Drama</option>\\n\\t\\t\\t\\t\\t\\t\\t<option value="3">Sci-Fi</option>\\n\\t\\t\\t\\t\\t\\t\\t<option value="4">Adventure</option>\\n\\t\\t\\t\\t\\t\\t\\t<option value="5">Animation</option>\\n\\t\\t\\t\\t\\t\\t\\t<option value="6">Horror</option>\\n\\t\\t\\t\\t\\t\\t\\t<option value="7">Fantasy</option>\\n\\t\\t\\t\\t\\t\\t\\t<option value="8">Comedy</option>\\n\\t\\t\\t\\t\\t\\t\\t<option value="8">Thriller</option>\\n\\n\\t\\t\\t\\t\\t\\t</select>\\n\\t\\t\\t\\t\\t</div>\\n\\t\\t\\t\\t</div>\\n\\t\\t\\t\\t<!-- Break -->\\n\\t\\t\\t\\t<div class="4u 12u$(small)">\\n\\t\\t\\t\\t\\t<input type="radio" id="demo-priority-low" name="yearQuery"> <!--checked-->\\n\\t\\t\\t\\t\\t<label for="demo-priority-low">Before 2000</label>\\n\\t\\t\\t\\t</div>\\n\\t\\t\\t\\t<div class="4u 12u$(small)">\\n\\t\\t\\t\\t\\t<input type="radio" id="demo-priority-normal" name="yearQuery">\\n\\t\\t\\t\\t\\t<label for="demo-priority-normal">2000s</label>\\n\\t\\t\\t\\t</div>\\n\\t\\t\\t\\t<div class="4u$ 12u$(small)">\\n\\t\\t\\t\\t\\t<input type="radio" id="demo-priority-high" name="yearQuery">\\n\\t\\t\\t\\t\\t<label for="demo-priority-high">This Year</label>\\n\\t\\t\\t\\t</div>\\n\\t\\t\\t\\t<!-- Break -->\\n\\t\\t\\t\\t<div class="4u 12u$(small)">\\n\\t\\t\\t\\t\\t<input type="checkbox" id="demo-copy" name="demo-copy">\\n\\t\\t\\t\\t\\t<label for="demo-copy">7.0+</label>\\n\\t\\t\\t\\t</div>\\n\\t\\t\\t\\t<div class="4u 12u$(small)">\\n\\t\\t\\t\\t\\t<input type="checkbox" id="demo-human" name="demo-human">\\n\\t\\t\\t\\t\\t<label for="demo-human">8.0+</label>\\n\\t\\t\\t\\t</div>\\n\\t\\t\\t\\t<div class="4u$ 12u$(small)">\\n\\t\\t\\t\\t\\t<input type="checkbox" id="demo-copy" name="demo-copy">\\n\\t\\t\\t\\t\\t<label for="demo-copy">9.0+</label>\\n\\t\\t\\t\\t</div>\\n\\n\\n\\t\\t\\t\\t<!-- Break -->\\n\\t\\t\\t\\t<div class="12u$">\\n\\t\\t\\t\\t\\t<ul class="actions">\\n\\t\\t\\t\\t\\t\\t<li><input type="submit" value="Search" class="special" /></li>\\n\\t\\t\\t\\t\\t\\t<li><input type="reset" value="Reset" /></li>\\n\\t\\t\\t\\t\\t</ul>\\n\\t\\t\\t\\t</div>\\n\\t\\t\\t</div>\\n\\t\\t</form>\\n\\n\\n\\n</nav>\\n\\n\\n</div>\\n</div>\\n\\n</div>\', escape=False)\nresponse.write(\'\\n\\n\', escape=False)\nresponse.write(\'\\n\\t\\t\\t\\t\\t\\t</div>\\n\\t\\t\\t\\t\\t</div>\\n\\n\\t\\t\\t</div>\\n\\n\\t\\t\\t<script src="\', escape=False)\nresponse.write(URL(\'static/template\',\'assets/js/jquery.min.js\'))\nresponse.write(\'"></script>\\n\\t\\t\\t<script src="\', escape=False)\nresponse.write(URL(\'static/template\',\'assets/js/skel.min.js\'))\nresponse.write(\'"></script>\\n\\t\\t\\t<script src="\', escape=False)\nresponse.write(URL(\'static/template\',\'assets/js/util.js\'))\nresponse.write(\'"></script>\\n\\t\\t\\t<script src="\', escape=False)\nresponse.write(URL(\'static/template\',\'assets/js/main.js\'))\nresponse.write(\'"></script>\\n\\n\\t</body>\\n</html>\\n\', escape=False)\nresponse.write(\'\\n\', escape=False)'
p7
sS'snapshot'
p8
(dp9
S'exception'
p10
(dp11
S'__hash__'
p12
S"<method-wrapper '__hash__' of exceptions.TypeError object>"
p13
sS'__setattr__'
p14
S"<method-wrapper '__setattr__' of exceptions.TypeError object>"
p15
sS'__reduce_ex__'
p16
S'<built-in method __reduce_ex__ of exceptions.TypeError object>'
p17
sS'__getslice__'
p18
S"<method-wrapper '__getslice__' of exceptions.TypeError object>"
p19
sS'__getitem__'
p20
S"<method-wrapper '__getitem__' of exceptions.TypeError object>"
p21
sS'__setstate__'
p22
S'<built-in method __setstate__ of exceptions.TypeError object>'
p23
sS'args'
p24
S"('list indices must be integers, not dict',)"
p25
sS'__reduce__'
p26
S'<built-in method __reduce__ of exceptions.TypeError object>'
p27
sS'__str__'
p28
S"<method-wrapper '__str__' of exceptions.TypeError object>"
p29
sS'__format__'
p30
S'<built-in method __format__ of exceptions.TypeError object>'
p31
sS'__getattribute__'
p32
S"<method-wrapper '__getattribute__' of exceptions.TypeError object>"
p33
sS'__class__'
p34
S"<type 'exceptions.TypeError'>"
p35
sS'__unicode__'
p36
S'<built-in method __unicode__ of exceptions.TypeError object>'
p37
sS'__delattr__'
p38
S"<method-wrapper '__delattr__' of exceptions.TypeError object>"
p39
sS'__subclasshook__'
p40
S'<built-in method __subclasshook__ of type object>'
p41
sS'__repr__'
p42
S"<method-wrapper '__repr__' of exceptions.TypeError object>"
p43
sS'__dict__'
p44
S'{}'
p45
sS'__sizeof__'
p46
S'<built-in method __sizeof__ of exceptions.TypeError object>'
p47
sS'__doc__'
p48
S"'Inappropriate argument type.'"
p49
sS'__init__'
p50
S"<method-wrapper '__init__' of exceptions.TypeError object>"
p51
sS'__new__'
p52
S'<built-in method __new__ of type object>'
p53
ssS'evalue'
p54
S'list indices must be integers, not dict'
p55
sS'request'
p56
cgluon.html
XML_unpickle
p57
(S'sG[\x00\x00<div><table><tr><td style="font-weight:bold;vertical-align:top;">ajax</td><td style="vertical-align:top;">:</td><td><div>False</div></td></tr><tr><td style="font-weight:bold;vertical-align:top;">application</td><td style="vertical-align:top;">:</td><td><div>imdbtvseries</div></td></tr><tr><td style="font-weight:bold;vertical-align:top;">args</td><td style="vertical-align:top;">:</td><td><div><table><tr><td><div>0</div></td></tr></table></div></td></tr><tr><td style="font-weight:bold;vertical-align:top;">cid</td><td style="vertical-align:top;">:</td><td><div>None</div></td></tr><tr><td style="font-weight:bold;vertical-align:top;">client</td><td style="vertical-align:top;">:</td><td><div>127.0.0.1</div></td></tr><tr><td style="font-weight:bold;vertical-align:top;">controller</td><td style="vertical-align:top;">:</td><td><div>default</div></td></tr><tr><td style="font-weight:bold;vertical-align:top;">cookies</td><td style="vertical-align:top;">:</td><td><div><table><tr><td style="font-weight:bold;vertical-align:top;">session_id_admin</td><td style="vertical-align:top;">:</td><td><div>127.0.0.1-4c8ba7af-3b4d-4d3c-99dc-f21f73939933<table><tr><td style="font-weight:bold;vertical-align:top;">comment</td><td style="vertical-align:top;">:</td><td><div></div></td></tr><tr><td style="font-weight:bold;vertical-align:top;">domain</td><td style="vertical-align:top;">:</td><td><div></div></td></tr><tr><td style="font-weight:bold;vertical-align:top;">expires</td><td style="vertical-align:top;">:</td><td><div></div></td></tr><tr><td style="font-weight:bold;vertical-align:top;">httponly</td><td style="vertical-align:top;">:</td><td><div></div></td></tr><tr><td style="font-weight:bold;vertical-align:top;">max-age</td><td style="vertical-align:top;">:</td><td><div></div></td></tr><tr><td style="font-weight:bold;vertical-align:top;">path</td><td style="vertical-align:top;">:</td><td><div></div></td></tr><tr><td style="font-weight:bold;vertical-align:top;">secure</td><td style="vertical-align:top;">:</td><td><div></div></td></tr><tr><td style="font-weight:bold;vertical-align:top;">version</td><td style="vertical-align:top;">:</td><td><div></div></td></tr></table></div></td></tr><tr><td style="font-weight:bold;vertical-align:top;">session_id_imdbtvseries</td><td style="vertical-align:top;">:</td><td><div>127.0.0.1-3bf466c1-2d08-434a-922d-b6d1d5494c35<table><tr><td style="font-weight:bold;vertical-align:top;">comment</td><td style="vertical-align:top;">:</td><td><div></div></td></tr><tr><td style="font-weight:bold;vertical-align:top;">domain</td><td style="vertical-align:top;">:</td><td><div></div></td></tr><tr><td style="font-weight:bold;vertical-align:top;">expires</td><td style="vertical-align:top;">:</td><td><div></div></td></tr><tr><td style="font-weight:bold;vertical-align:top;">httponly</td><td style="vertical-align:top;">:</td><td><div></div></td></tr><tr><td style="font-weight:bold;vertical-align:top;">max-age</td><td style="vertical-align:top;">:</td><td><div></div></td></tr><tr><td style="font-weight:bold;vertical-align:top;">path</td><td style="vertical-align:top;">:</td><td><div></div></td></tr><tr><td style="font-weight:bold;vertical-align:top;">secure</td><td style="vertical-align:top;">:</td><td><div></div></td></tr><tr><td style="font-weight:bold;vertical-align:top;">version</td><td style="vertical-align:top;">:</td><td><div></div></td></tr></table></div></td></tr><tr><td style="font-weight:bold;vertical-align:top;">session_id_welcome</td><td style="vertical-align:top;">:</td><td><div>127.0.0.1-b2587c29-b0d9-499e-a183-3a1370f187fb<table><tr><td style="font-weight:bold;vertical-align:top;">comment</td><td style="vertical-align:top;">:</td><td><div></div></td></tr><tr><td style="font-weight:bold;vertical-align:top;">domain</td><td style="vertical-align:top;">:</td><td><div></div></td></tr><tr><td style="font-weight:bold;vertical-align:top;">expires</td><td style="vertical-align:top;">:</td><td><div></div></td></tr><tr><td style="font-weight:bold;vertical-align:top;">httponly</td><td style="vertical-align:top;">:</td><td><div></div></td></tr><tr><td style="font-weight:bold;vertical-align:top;">max-age</td><td style="vertical-align:top;">:</td><td><div></div></td></tr><tr><td style="font-weight:bold;vertical-align:top;">path</td><td style="vertical-align:top;">:</td><td><div></div></td></tr><tr><td style="font-weight:bold;vertical-align:top;">secure</td><td style="vertical-align:top;">:</td><td><div></div></td></tr><tr><td style="font-weight:bold;vertical-align:top;">version</td><td style="vertical-align:top;">:</td><td><div></div></td></tr></table></div></td></tr></table></div></td></tr><tr><td style="font-weight:bold;vertical-align:top;">env</td><td style="vertical-align:top;">:</td><td><div><table><tr><td style="font-weight:bold;vertical-align:top;">HTTP_ACCEPT</td><td style="vertical-align:top;">:</td><td><div>text/html,application/xhtml+xml,application/xml;q=0.9,image/webp,*/*;q=0.8</div></td></tr><tr><td style="font-weight:bold;vertical-align:top;">HTTP_ACCEPT_ENCODING</td><td style="vertical-align:top;">:</td><td><div>gzip, deflate, sdch, br</div></td></tr><tr><td style="font-weight:bold;vertical-align:top;">HTTP_ACCEPT_LANGUAGE</td><td style="vertical-align:top;">:</td><td><div>en-US,en;q=0.8</div></td></tr><tr><td style="font-weight:bold;vertical-align:top;">HTTP_CONNECTION</td><td style="vertical-align:top;">:</td><td><div>keep-alive</div></td></tr><tr><td style="font-weight:bold;vertical-align:top;">HTTP_COOKIE</td><td style="vertical-align:top;">:</td><td><div>session_id_welcome=127.0.0.1-b2587c29-b0d9-499e-a183-3a1370f187fb; session_id_admin=127.0.0.1-4c8ba7af-3b4d-4d3c-99dc-f21f73939933; session_id_imdbtvseries=127.0.0.1-3bf466c1-2d08-434a-922d-b6d1d5494c35</div></td></tr><tr><td style="font-weight:bold;vertical-align:top;">HTTP_HOST</td><td style="vertical-align:top;">:</td><td><div>127.0.0.1:8000</div></td></tr><tr><td style="font-weight:bold;vertical-align:top;">HTTP_REFERER</td><td style="vertical-align:top;">:</td><td><div>http://127.0.0.1:8000/imdbtvseries/</div></td></tr><tr><td style="font-weight:bold;vertical-align:top;">HTTP_UPGRADE_INSECURE_REQUESTS</td><td style="vertical-align:top;">:</td><td><div>1</div></td></tr><tr><td style="font-weight:bold;vertical-align:top;">HTTP_USER_AGENT</td><td style="vertical-align:top;">:</td><td><div>Mozilla/5.0 (X11; Linux x86_64) AppleWebKit/537.36 (KHTML, like Gecko) Chrome/55.0.2883.87 Safari/537.36</div></td></tr><tr><td style="font-weight:bold;vertical-align:top;">PATH_INFO</td><td style="vertical-align:top;">:</td><td><div>/imdbtvseries/default/search/0</div></td></tr><tr><td style="font-weight:bold;vertical-align:top;">QUERY_STRING</td><td style="vertical-align:top;">:</td><td><div>q=rick</div></td></tr><tr><td style="font-weight:bold;vertical-align:top;">REMOTE_ADDR</td><td style="vertical-align:top;">:</td><td><div>127.0.0.1</div></td></tr><tr><td style="font-weight:bold;vertical-align:top;">REMOTE_PORT</td><td style="vertical-align:top;">:</td><td><div>54902</div></td></tr><tr><td style="font-weight:bold;vertical-align:top;">REQUEST_METHOD</td><td style="vertical-align:top;">:</td><td><div>GET</div></td></tr><tr><td style="font-weight:bold;vertical-align:top;">SCRIPT_NAME</td><td style="vertical-align:top;">:</td><td><div></div></td></tr><tr><td style="font-weight:bold;vertical-align:top;">SERVER_NAME</td><td style="vertical-align:top;">:</td><td><div>chnselim</div></td></tr><tr><td style="font-weight:bold;vertical-align:top;">SERVER_PORT</td><td style="vertical-align:top;">:</td><td><div>8000</div></td></tr><tr><td style="font-weight:bold;vertical-align:top;">SERVER_PROTOCOL</td><td style="vertical-align:top;">:</td><td><div>HTTP/1.1</div></td></tr><tr><td style="font-weight:bold;vertical-align:top;">SERVER_SOFTWARE</td><td style="vertical-align:top;">:</td><td><div>Rocket 1.2.6</div></td></tr><tr><td style="font-weight:bold;vertical-align:top;">app_folders</td><td style="vertical-align:top;">:</td><td><div>set([&#x27;/usr/share/web2py/applications/welcome/&#x27;, &#x27;/usr/share/web2py/applications/imdbtvseries/&#x27;, &#x27;/usr/share/web2py/applications/admin/&#x27;])</div></td></tr><tr><td style="font-weight:bold;vertical-align:top;">applications_parent</td><td style="vertical-align:top;">:</td><td><div>/usr/share/web2py</div></td></tr><tr><td style="font-weight:bold;vertical-align:top;">cmd_args</td><td style="vertical-align:top;">:</td><td><div><table></table></div></td></tr><tr><td style="font-weight:bold;vertical-align:top;">cmd_options</td><td style="vertical-align:top;">:</td><td><div>&lt;Values at 0x7fa91efb73f8: {&#x27;verbose&#x27;: False, &#x27;ip&#x27;: &#x27;127.0.0.1&#x27;, &#x27;debuglevel&#x27;: 30, &#x27;with_scheduler&#x27;: False, &#x27;shutdown_timeout&#x27;: 5, &#x27;taskbar&#x27;: False, &#x27;with_coverage&#x27;: False, &#x27;pid_filename&#x27;: &#x27;httpserver.pid&#x27;, &#x27;maxthreads&#x27;: None, &#x27;softcron&#x27;: False, &#x27;server_name&#x27;: &#x27;chnselim&#x27;, &#x27;bpython&#x27;: False, &#x27;nogui&#x27;: False, &#x27;port&#x27;: 8000, &#x27;print_errors&#x27;: False, &#x27;extcron&#x27;: False, &#x27;runcron&#x27;: False, &#x27;run_system_tests&#x27;: False, &#x27;test&#x27;: None, &#x27;folder&#x27;: &#x27;/usr/share/web2py&#x27;, &#x27;config&#x27;: &#x27;&#x27;, &#x27;minthreads&#x27;: None, &#x27;shell&#x27;: None, &#x27;run&#x27;: &#x27;&#x27;, &#x27;log_filename&#x27;: &#x27;httpserver.log&#x27;, &#x27;profiler_dir&#x27;: None, &#x27;args&#x27;: [&#x27;&#x27;], &#x27;socket_timeout&#x27;: 5, &#x27;ssl_ca_certificate&#x27;: None, &#x27;scheduler&#x27;: None, &#x27;interfaces&#x27;: None, &#x27;ssl_private_key&#x27;: &#x27;&#x27;, &#x27;gae&#x27;: None, &#x27;password&#x27;: &#x27;******&#x27;, &#x27;request_queue_size&#x27;: 5, &#x27;ssl_certificate&#x27;: &#x27;&#x27;, &#x27;cronjob&#x27;: False, &#x27;numthreads&#x27;: None, &#x27;quiet&#x27;: False, &#x27;import_models&#x27;: False, &#x27;timeout&#x27;: 10, &#x27;plain&#x27;: False, &#x27;nobanner&#x27;: False}&gt;</div></td></tr><tr><td style="font-weight:bold;vertical-align:top;">db_sessions</td><td style="vertical-align:top;">:</td><td><div>set([])</div></td></tr><tr><td style="font-weight:bold;vertical-align:top;">debugging</td><td style="vertical-align:top;">:</td><td><div>False</div></td></tr><tr><td style="font-weight:bold;vertical-align:top;">gluon_parent</td><td style="vertical-align:top;">:</td><td><div>/usr/share/web2py</div></td></tr><tr><td style="font-weight:bold;vertical-align:top;">http_accept</td><td style="vertical-align:top;">:</td><td><div>text/html,application/xhtml+xml,application/xml;q=0.9,image/webp,*/*;q=0.8</div></td></tr><tr><td style="font-weight:bold;vertical-align:top;">http_accept_encoding</td><td style="vertical-align:top;">:</td><td><div>gzip, deflate, sdch, br</div></td></tr><tr><td style="font-weight:bold;vertical-align:top;">http_accept_language</td><td style="vertical-align:top;">:</td><td><div>en-US,en;q=0.8</div></td></tr><tr><td style="font-weight:bold;vertical-align:top;">http_connection</td><td style="vertical-align:top;">:</td><td><div>keep-alive</div></td></tr><tr><td style="font-weight:bold;vertical-align:top;">http_cookie</td><td style="vertical-align:top;">:</td><td><div>session_id_welcome=127.0.0.1-b2587c29-b0d9-499e-a183-3a1370f187fb; session_id_admin=127.0.0.1-4c8ba7af-3b4d-4d3c-99dc-f21f73939933; session_id_imdbtvseries=127.0.0.1-3bf466c1-2d08-434a-922d-b6d1d5494c35</div></td></tr><tr><td style="font-weight:bold;vertical-align:top;">http_host</td><td style="vertical-align:top;">:</td><td><div>127.0.0.1:8000</div></td></tr><tr><td style="font-weight:bold;vertical-align:top;">http_referer</td><td style="vertical-align:top;">:</td><td><div>http://127.0.0.1:8000/imdbtvseries/</div></td></tr><tr><td style="font-weight:bold;vertical-align:top;">http_upgrade_insecure_requests</td><td style="vertical-align:top;">:</td><td><div>1</div></td></tr><tr><td style="font-weight:bold;vertical-align:top;">http_user_agent</td><td style="vertical-align:top;">:</td><td><div>Mozilla/5.0 (X11; Linux x86_64) AppleWebKit/537.36 (KHTML, like Gecko) Chrome/55.0.2883.87 Safari/537.36</div></td></tr><tr><td style="font-weight:bold;vertical-align:top;">is_jython</td><td style="vertical-align:top;">:</td><td><div>False</div></td></tr><tr><td style="font-weight:bold;vertical-align:top;">is_pypy</td><td style="vertical-align:top;">:</td><td><div>False</div></td></tr><tr><td style="font-weight:bold;vertical-align:top;">is_source</td><td style="vertical-align:top;">:</td><td><div>True</div></td></tr><tr><td style="font-weight:bold;vertical-align:top;">local_hosts</td><td style="vertical-align:top;">:</td><td><div><table><tr><td><div>chnselim</div></td></tr><tr><td><div>::1</div></td></tr><tr><td><div>127.0.1.1</div></td></tr><tr><td><div>::ffff:127.0.0.1</div></td></tr><tr><td><div>127.0.0.1</div></td></tr></table></div></td></tr><tr><td style="font-weight:bold;vertical-align:top;">path_info</td><td style="vertical-align:top;">:</td><td><div>/imdbtvseries/default/search/0</div></td></tr><tr><td style="font-weight:bold;vertical-align:top;">query_string</td><td style="vertical-align:top;">:</td><td><div>q=rick</div></td></tr><tr><td style="font-weight:bold;vertical-align:top;">remote_addr</td><td style="vertical-align:top;">:</td><td><div>127.0.0.1</div></td></tr><tr><td style="font-weight:bold;vertical-align:top;">remote_port</td><td style="vertical-align:top;">:</td><td><div>54902</div></td></tr><tr><td style="font-weight:bold;vertical-align:top;">request_method</td><td style="vertical-align:top;">:</td><td><div>GET</div></td></tr><tr><td style="font-weight:bold;vertical-align:top;">request_uri</td><td style="vertical-align:top;">:</td><td><div>/imdbtvseries/default/search/0?q=rick</div></td></tr><tr><td style="font-weight:bold;vertical-align:top;">script_name</td><td style="vertical-align:top;">:</td><td><div></div></td></tr><tr><td style="font-weight:bold;vertical-align:top;">server_name</td><td style="vertical-align:top;">:</td><td><div>chnselim</div></td></tr><tr><td style="font-weight:bold;vertical-align:top;">server_port</td><td style="vertical-align:top;">:</td><td><div>8000</div></td></tr><tr><td style="font-weight:bold;vertical-align:top;">server_protocol</td><td style="vertical-align:top;">:</td><td><div>HTTP/1.1</div></td></tr><tr><td style="font-weight:bold;vertical-align:top;">server_software</td><td style="vertical-align:top;">:</td><td><div>Rocket 1.2.6</div></td></tr><tr><td style="font-weight:bold;vertical-align:top;">web2py_path</td><td style="vertical-align:top;">:</td><td><div>/usr/share/web2py</div></td></tr><tr><td style="font-weight:bold;vertical-align:top;">web2py_version</td><td style="vertical-align:top;">:</td><td><div>2.14.6-stable+timestamp.2016.05.10.00.21.47</div></td></tr><tr><td style="font-weight:bold;vertical-align:top;">wsgi.errors</td><td style="vertical-align:top;">:</td><td><div>&lt;open file &#x27;&lt;stderr&gt;&#x27;, mode &#x27;w&#x27; at 0x7fa9257481e0&gt;</div></td></tr><tr><td style="font-weight:bold;vertical-align:top;">wsgi.file_wrapper</td><td style="vertical-align:top;">:</td><td><div>&lt;class wsgiref.util.FileWrapper at 0x7fa91f051e20&gt;</div></td></tr><tr><td style="font-weight:bold;vertical-align:top;">wsgi.input</td><td style="vertical-align:top;">:</td><td><div>&lt;socket._fileobject object at 0x7fa91c100e50&gt;</div></td></tr><tr><td style="font-weight:bold;vertical-align:top;">wsgi.multiprocess</td><td style="vertical-align:top;">:</td><td><div>False</div></td></tr><tr><td style="font-weight:bold;vertical-align:top;">wsgi.multithread</td><td style="vertical-align:top;">:</td><td><div>True</div></td></tr><tr><td style="font-weight:bold;vertical-align:top;">wsgi.run_once</td><td style="vertical-align:top;">:</td><td><div>False</div></td></tr><tr><td style="font-weight:bold;vertical-align:top;">wsgi.url_scheme</td><td style="vertical-align:top;">:</td><td><div>http</div></td></tr><tr><td style="font-weight:bold;vertical-align:top;">wsgi.version</td><td style="vertical-align:top;">:</td><td><div><table><tr><td><div>1</div></td></tr><tr><td><div>0</div></td></tr></table></div></td></tr><tr><td style="font-weight:bold;vertical-align:top;">wsgi_errors</td><td style="vertical-align:top;">:</td><td><div>&lt;open file &#x27;&lt;stderr&gt;&#x27;, mode &#x27;w&#x27; at 0x7fa9257481e0&gt;</div></td></tr><tr><td style="font-weight:bold;vertical-align:top;">wsgi_file_wrapper</td><td style="vertical-align:top;">:</td><td><div>&lt;class wsgiref.util.FileWrapper at 0x7fa91f051e20&gt;</div></td></tr><tr><td style="font-weight:bold;vertical-align:top;">wsgi_input</td><td style="vertical-align:top;">:</td><td><div>&lt;socket._fileobject object at 0x7fa91c100e50&gt;</div></td></tr><tr><td style="font-weight:bold;vertical-align:top;">wsgi_multiprocess</td><td style="vertical-align:top;">:</td><td><div>False</div></td></tr><tr><td style="font-weight:bold;vertical-align:top;">wsgi_multithread</td><td style="vertical-align:top;">:</td><td><div>True</div></td></tr><tr><td style="font-weight:bold;vertical-align:top;">wsgi_run_once</td><td style="vertical-align:top;">:</td><td><div>False</div></td></tr><tr><td style="font-weight:bold;vertical-align:top;">wsgi_url_scheme</td><td style="vertical-align:top;">:</td><td><div>http</div></td></tr><tr><td style="font-weight:bold;vertical-align:top;">wsgi_version</td><td style="vertical-align:top;">:</td><td><div><table><tr><td><div>1</div></td></tr><tr><td><div>0</div></td></tr></table></div></td></tr></table></div></td></tr><tr><td style="font-weight:bold;vertical-align:top;">extension</td><td style="vertical-align:top;">:</td><td><div>html</div></td></tr><tr><td style="font-weight:bold;vertical-align:top;">folder</td><td style="vertical-align:top;">:</td><td><div>/usr/share/web2py/applications/imdbtvseries/</div></td></tr><tr><td style="font-weight:bold;vertical-align:top;">function</td><td style="vertical-align:top;">:</td><td><div>search</div></td></tr><tr><td style="font-weight:bold;vertical-align:top;">global_settings</td><td style="vertical-align:top;">:</td><td><div><table><tr><td style="font-weight:bold;vertical-align:top;">app_folders</td><td style="vertical-align:top;">:</td><td><div>set([&#x27;/usr/share/web2py/applications/welcome/&#x27;, &#x27;/usr/share/web2py/applications/imdbtvseries/&#x27;, &#x27;/usr/share/web2py/applications/admin/&#x27;])</div></td></tr><tr><td style="font-weight:bold;vertical-align:top;">applications_parent</td><td style="vertical-align:top;">:</td><td><div>/usr/share/web2py</div></td></tr><tr><td style="font-weight:bold;vertical-align:top;">cmd_args</td><td style="vertical-align:top;">:</td><td><div><table></table></div></td></tr><tr><td style="font-weight:bold;vertical-align:top;">cmd_options</td><td style="vertical-align:top;">:</td><td><div>&lt;Values at 0x7fa91efb73f8: {&#x27;verbose&#x27;: False, &#x27;ip&#x27;: &#x27;127.0.0.1&#x27;, &#x27;debuglevel&#x27;: 30, &#x27;with_scheduler&#x27;: False, &#x27;shutdown_timeout&#x27;: 5, &#x27;taskbar&#x27;: False, &#x27;with_coverage&#x27;: False, &#x27;pid_filename&#x27;: &#x27;httpserver.pid&#x27;, &#x27;maxthreads&#x27;: None, &#x27;softcron&#x27;: False, &#x27;server_name&#x27;: &#x27;chnselim&#x27;, &#x27;bpython&#x27;: False, &#x27;nogui&#x27;: False, &#x27;port&#x27;: 8000, &#x27;print_errors&#x27;: False, &#x27;extcron&#x27;: False, &#x27;runcron&#x27;: False, &#x27;run_system_tests&#x27;: False, &#x27;test&#x27;: None, &#x27;folder&#x27;: &#x27;/usr/share/web2py&#x27;, &#x27;config&#x27;: &#x27;&#x27;, &#x27;minthreads&#x27;: None, &#x27;shell&#x27;: None, &#x27;run&#x27;: &#x27;&#x27;, &#x27;log_filename&#x27;: &#x27;httpserver.log&#x27;, &#x27;profiler_dir&#x27;: None, &#x27;args&#x27;: [&#x27;&#x27;], &#x27;socket_timeout&#x27;: 5, &#x27;ssl_ca_certificate&#x27;: None, &#x27;scheduler&#x27;: None, &#x27;interfaces&#x27;: None, &#x27;ssl_private_key&#x27;: &#x27;&#x27;, &#x27;gae&#x27;: None, &#x27;password&#x27;: &#x27;******&#x27;, &#x27;request_queue_size&#x27;: 5, &#x27;ssl_certificate&#x27;: &#x27;&#x27;, &#x27;cronjob&#x27;: False, &#x27;numthreads&#x27;: None, &#x27;quiet&#x27;: False, &#x27;import_models&#x27;: False, &#x27;timeout&#x27;: 10, &#x27;plain&#x27;: False, &#x27;nobanner&#x27;: False}&gt;</div></td></tr><tr><td style="font-weight:bold;vertical-align:top;">db_sessions</td><td style="vertical-align:top;">:</td><td><div>set([])</div></td></tr><tr><td style="font-weight:bold;vertical-align:top;">debugging</td><td style="vertical-align:top;">:</td><td><div>False</div></td></tr><tr><td style="font-weight:bold;vertical-align:top;">gluon_parent</td><td style="vertical-align:top;">:</td><td><div>/usr/share/web2py</div></td></tr><tr><td style="font-weight:bold;vertical-align:top;">is_jython</td><td style="vertical-align:top;">:</td><td><div>False</div></td></tr><tr><td style="font-weight:bold;vertical-align:top;">is_pypy</td><td style="vertical-align:top;">:</td><td><div>False</div></td></tr><tr><td style="font-weight:bold;vertical-align:top;">is_source</td><td style="vertical-align:top;">:</td><td><div>True</div></td></tr><tr><td style="font-weight:bold;vertical-align:top;">local_hosts</td><td style="vertical-align:top;">:</td><td><div><table><tr><td><div>chnselim</div></td></tr><tr><td><div>::1</div></td></tr><tr><td><div>127.0.1.1</div></td></tr><tr><td><div>::ffff:127.0.0.1</div></td></tr><tr><td><div>127.0.0.1</div></td></tr></table></div></td></tr><tr><td style="font-weight:bold;vertical-align:top;">web2py_version</td><td style="vertical-align:top;">:</td><td><div>2.14.6-stable+timestamp.2016.05.10.00.21.47</div></td></tr></table></div></td></tr><tr><td style="font-weight:bold;vertical-align:top;">is_https</td><td style="vertical-align:top;">:</td><td><div>False</div></td></tr><tr><td style="font-weight:bold;vertical-align:top;">is_local</td><td style="vertical-align:top;">:</td><td><div>True</div></td></tr><tr><td style="font-weight:bold;vertical-align:top;">is_restful</td><td style="vertical-align:top;">:</td><td><div>False</div></td></tr><tr><td style="font-weight:bold;vertical-align:top;">is_scheduler</td><td style="vertical-align:top;">:</td><td><div>False</div></td></tr><tr><td style="font-weight:bold;vertical-align:top;">is_shell</td><td style="vertical-align:top;">:</td><td><div>False</div></td></tr><tr><td style="font-weight:bold;vertical-align:top;">now</td><td style="vertical-align:top;">:</td><td><div>datetime.datetime(2017, 5, 19, 13, 12, 14, 993833)</div></td></tr><tr><td style="font-weight:bold;vertical-align:top;">raw_args</td><td style="vertical-align:top;">:</td><td><div>0</div></td></tr><tr><td style="font-weight:bold;vertical-align:top;">raw_extension</td><td style="vertical-align:top;">:</td><td><div>None</div></td></tr><tr><td style="font-weight:bold;vertical-align:top;">url</td><td style="vertical-align:top;">:</td><td><div>/imdbtvseries/default/search/0</div></td></tr><tr><td style="font-weight:bold;vertical-align:top;">utcnow</td><td style="vertical-align:top;">:</td><td><div>datetime.datetime(2017, 5, 19, 10, 12, 14, 993869)</div></td></tr><tr><td style="font-weight:bold;vertical-align:top;">wsgi</td><td style="vertical-align:top;">:</td><td><div>&lt;gluon.main.LazyWSGI object at 0x7fa8edbaed90&gt;</div></td></tr></table></div>'
tRp58
sS'frames'
p59
(lp60
(dp61
S'file'
p62
S'/usr/share/web2py/gluon/restricted.py'
p63
sS'dump'
p64
(dp65
S'environment'
p66
S"{'A': <class 'gluon.html.A'>, 'ANY_OF': <class 'gluon.validators.ANY_OF'>, 'ASSIGNJS': <function ASSIGNJS>, 'AppConfig': <function AppConfig>, 'Auth': <class 'gluon.tools.Auth'>, 'B': <class 'gluon.html.B'>, 'BEAUTIFY': <class 'gluon.html.BEAUTIFY'>, 'BODY': <class 'gluon.html.BODY'>, 'BR': <class 'gluon.html.BR'>, 'BUTTON': <class 'gluon.html.BUTTON'>, ...}"
p67
sS'ccode'
p68
S'<code object <module> at 0x7fa8ed8077b0, file "/.../imdbtvseries/views/default/search.html", line 1>'
p69
ssS'lnum'
p70
I227
sS'lines'
p71
(dp72
I224
S'            ccode = code'
p73
sI225
S'        else:'
p74
sI226
S'            ccode = compile2(code, layer)'
p75
sI227
S'        exec ccode in environment'
p76
sI228
S'    except HTTP:'
p77
sI229
S'        raise'
p78
sI230
S'    except RestrictedError:'
p79
sI231
S'        # do not encapsulate (obfuscate) the original RestrictedError'
p80
sI222
S'    try:'
p81
sI223
S'        if isinstance(code, types.CodeType):'
p82
ssS'call'
p83
S'(code="response.write(\'\\\\n<!DOCTYPE HTML>\\\\n\\\\n<html>\\\\n\\\\t<... escape=False)\\nresponse.write(\'\\\\n\', escape=False)", environment={\'A\': <class \'gluon.html.A\'>, \'ANY_OF\': <class \'gluon.validators.ANY_OF\'>, \'ASSIGNJS\': <function ASSIGNJS>, \'AppConfig\': <function AppConfig>, \'Auth\': <class \'gluon.tools.Auth\'>, \'B\': <class \'gluon.html.B\'>, \'BEAUTIFY\': <class \'gluon.html.BEAUTIFY\'>, \'BODY\': <class \'gluon.html.BODY\'>, \'BR\': <class \'gluon.html.BR\'>, \'BUTTON\': <class \'gluon.html.BUTTON\'>, ...}, layer=\'/usr/share/web2py/applications/imdbtvseries/views/default/search.html\')'
p84
sS'func'
p85
S'restricted'
p86
sa(dp87
g62
S'/usr/share/web2py/applications/imdbtvseries/views/default/search.html'
p88
sg64
(dp89
S'a'
S'undefined'
p90
sS'span'
p91
g90
sS'Instagram'
p92
g90
sS'li'
p93
g90
sS'href'
p94
g90
sS'target'
p95
g90
ssg70
I15
sg71
(dp96
I6
S"response.write(search_result['response']['numFound'])"
p97
sI7
S'response.write(\'</em> \\n                <em style="font-style: inherit;color:#757575;">\\n                results for </em> \\n                <em style="text-transform: uppercase;font-style: inherit;color:#424242;">\', escape=False)'
p98
sI8
S'response.write(search_result[\'responseHeader\'][\'params\'][\'q\'].split(" AND ")[-1])'
p99
sI9
S"response.write('\\n                </em>\\n                ', escape=False)"
p100
sI10
S"if search_result['response']['numFound'] > 1:"
p101
sI11
S'    pass'
p102
sI12
S'response.write(\'\\n              </a>\\n                <ul class="icons">\\n                  <li><a href="https://www.twitter.com/chnselim" class="icon fa-twitter" target="_blank"><span class="label">Twitter</span></a></li>\\n                  <li><a href="https://www.instagram.com/chnselim" class="icon fa-instagram" target="_blank"><span class="label">Instagram</span></a></li>\\n                  <li><a href="https://www.github.com/chnselim" class="icon fa-github" target="_blank"><span class="label">Github</span></a></li>\\n                </ul>\\n            </header>\\n\\n<!-- Section -->\\n<section>\\n\\n\\t<div class="posts">\\n\\t\', escape=False)'
p103
sI13
S"for i in search_result['response']['docs']:"
p104
sI14
S'    response.write(\'\\n\\t\\t<article align="center">\\n\\t\\t\\t<a href="#" class="image"><img src="\', escape=False)'
p105
sI15
S'    response.write(search_result[\'response\'][\'docs\'][i][\'image\'][0] or "")'
p106
sI16
S'    response.write(\'" style="width: 45%; margin:auto;" alt="" /></a>\\n\\t\\t\\t\\n\\t\\t\\t<h3>\', escape=False)'
p107
sI17
S'    response.write(search_result[\'response\'][\'docs\'][i][\'name\'] or "")'
p108
sI18
S'    response.write(\'</h3>\\n\\t\\t\\t<p style="overflow: hidden;display: -webkit-box;-webkit-line-clamp: 2;-webkit-box-orient: vertical;">\', escape=False)'
p109
sI19
S'    response.write(search_result[\'response\'][\'docs\'][i][\'summary\'][0] or "")'
p110
sI20
S'    response.write(\'</p>\\n\\n\\t\\t\\t<ul class="actions">\\n\\t\\t\\t\\t<li><a href="" class="button">More</a></li>\\n\\t\\t\\t</ul>\\n\\n\\n\\t\\t</article>\\n\\t\', escape=False)'
p111
sI21
S'    pass'
p112
sI22
S'response.write(\'\\n\\t</div>\\n\\t\\n</section>\\n\\n<section>\\n\\t<div class="row 200%">\\n\\t\\t<div class="6u 12u$(medium)">\\n\\t\\t\\t<ul class="pagination" style="width: 100%;">\\n\\t\\t\\t\\t<li><span class="button disabled">Prev</span></li>\\n\\t\\t\\t\\t<li><a href="#" class="page active">1</a></li>\\n\\t\\t\\t\\t<li><a href="#" class="page">2</a></li>\\n\\t\\t\\t\\t<li><a href="#" class="page">3</a></li>\\n\\t\\t\\t\\t<li><span>&hellip;</span></li>\\n\\t\\t\\t\\t<li><a href="#" class="page">8</a></li>\\n\\t\\t\\t\\t<li><a href="#" class="page">9</a></li>\\n\\t\\t\\t\\t<li><a href="#" class="page">10</a></li>\\n\\t\\t\\t\\t<li><a href="#" class="button">Next</a></li>\\n\\t\\t\\t</ul>\\n\\t\\t</div>\\n\\t</div>\\n</section>\\n\\t\\n</div>\\n</div>\\n\\n<!-- Sidebar -->\\n<div id="sidebar">\\n<div class="inner">\\n<!-- Menu -->\\n<nav id="menu">\\n\\n\\t<header class="">\\n\\t\\t<h2>Search & Filter</h2><hr>\\n\\t</header>\\n\\n\\t<!-- Form -->\\n\\t\\t<form method="post" action="\', escape=False)'
p113
sI23
S"response.write(URL('default', 'search'))"
p114
sI24
S'response.write(\'">\\n\\t\\t\\t<div class="row uniform">\\n\\t\\t\\t\\t<div class="12u$ 12u$(xsmall)">\\n\\t\\t\\t\\t\\t<input type="text" name="q" id="demo-name" value="" placeholder="Search" />\\n\\t\\t\\t\\t</div>\\n\\t\\t\\t\\t<!-- Break -->\\n\\t\\t\\t\\t<div class="12u$">\\n\\t\\t\\t\\t\\t<div class="select-wrapper">\\n\\t\\t\\t\\t\\t\\t<select name="catQuery" id="demo-category">\\n\\t\\t\\t\\t\\t\\t\\t<option value="">- Category -</option>\\n\\t\\t\\t\\t\\t\\t\\t<option value="1">Action</option>\\n\\t\\t\\t\\t\\t\\t\\t<option value="2">Drama</option>\\n\\t\\t\\t\\t\\t\\t\\t<option value="3">Sci-Fi</option>\\n\\t\\t\\t\\t\\t\\t\\t<option value="4">Adventure</option>\\n\\t\\t\\t\\t\\t\\t\\t<option value="5">Animation</option>\\n\\t\\t\\t\\t\\t\\t\\t<option value="6">Horror</option>\\n\\t\\t\\t\\t\\t\\t\\t<option value="7">Fantasy</option>\\n\\t\\t\\t\\t\\t\\t\\t<option value="8">Comedy</option>\\n\\t\\t\\t\\t\\t\\t\\t<option value="8">Thriller</option>\\n\\n\\t\\t\\t\\t\\t\\t</select>\\n\\t\\t\\t\\t\\t</div>\\n\\t\\t\\t\\t</div>\\n\\t\\t\\t\\t<!-- Break -->\\n\\t\\t\\t\\t<div class="4u 12u$(small)">\\n\\t\\t\\t\\t\\t<input type="radio" id="demo-priority-low" name="yearQuery"> <!--checked-->\\n\\t\\t\\t\\t\\t<label for="demo-priority-low">Before 2000</label>\\n\\t\\t\\t\\t</div>\\n\\t\\t\\t\\t<div class="4u 12u$(small)">\\n\\t\\t\\t\\t\\t<input type="radio" id="demo-priority-normal" name="yearQuery">\\n\\t\\t\\t\\t\\t<label for="demo-priority-normal">2000s</label>\\n\\t\\t\\t\\t</div>\\n\\t\\t\\t\\t<div class="4u$ 12u$(small)">\\n\\t\\t\\t\\t\\t<input type="radio" id="demo-priority-high" name="yearQuery">\\n\\t\\t\\t\\t\\t<label for="demo-priority-high">This Year</label>\\n\\t\\t\\t\\t</div>\\n\\t\\t\\t\\t<!-- Break -->\\n\\t\\t\\t\\t<div class="4u 12u$(small)">\\n\\t\\t\\t\\t\\t<input type="checkbox" id="demo-copy" name="demo-copy">\\n\\t\\t\\t\\t\\t<label for="demo-copy">7.0+</label>\\n\\t\\t\\t\\t</div>\\n\\t\\t\\t\\t<div class="4u 12u$(small)">\\n\\t\\t\\t\\t\\t<input type="checkbox" id="demo-human" name="demo-human">\\n\\t\\t\\t\\t\\t<label for="demo-human">8.0+</label>\\n\\t\\t\\t\\t</div>\\n\\t\\t\\t\\t<div class="4u$ 12u$(small)">\\n\\t\\t\\t\\t\\t<input type="checkbox" id="demo-copy" name="demo-copy">\\n\\t\\t\\t\\t\\t<label for="demo-copy">9.0+</label>\\n\\t\\t\\t\\t</div>\\n\\n\\n\\t\\t\\t\\t<!-- Break -->\\n\\t\\t\\t\\t<div class="12u$">\\n\\t\\t\\t\\t\\t<ul class="actions">\\n\\t\\t\\t\\t\\t\\t<li><input type="submit" value="Search" class="special" /></li>\\n\\t\\t\\t\\t\\t\\t<li><input type="reset" value="Reset" /></li>\\n\\t\\t\\t\\t\\t</ul>\\n\\t\\t\\t\\t</div>\\n\\t\\t\\t</div>\\n\\t\\t</form>\\n\\n\\n\\n</nav>\\n\\n\\n</div>\\n</div>\\n\\n</div>\', escape=False)'
p115
sI25
S"response.write('\\n\\n', escape=False)"
p116
ssg83
S'()'
p117
sg85
S'<module>'
p118
sasS'pyver'
p119
S'Python 2.7.12: /usr/bin/python (prefix: /usr)'
p120
sS'session'
p121
g57
(S's\x1a\x00\x00\x00<div><table></table></div>'
tRp122
sS'etype'
p123
S"<type 'exceptions.TypeError'>"
p124
sS'date'
p125
S'Fri May 19 13:12:15 2017'
p126
sS'response'
p127
g57
(S's\x17>\x00\x00<div><table><tr><td style="font-weight:bold;vertical-align:top;">body</td><td style="vertical-align:top;">:</td><td><div>&lt;cStringIO.StringO object at 0x7fa8edb9e180&gt;</div></td></tr><tr><td style="font-weight:bold;vertical-align:top;">cookies</td><td style="vertical-align:top;">:</td><td><div><table><tr><td style="font-weight:bold;vertical-align:top;">session_id_imdbtvseries</td><td style="vertical-align:top;">:</td><td><div>127.0.0.1-5740b7c7-5ef6-4d59-8346-ba69816f3389<table><tr><td style="font-weight:bold;vertical-align:top;">comment</td><td style="vertical-align:top;">:</td><td><div></div></td></tr><tr><td style="font-weight:bold;vertical-align:top;">domain</td><td style="vertical-align:top;">:</td><td><div></div></td></tr><tr><td style="font-weight:bold;vertical-align:top;">expires</td><td style="vertical-align:top;">:</td><td><div></div></td></tr><tr><td style="font-weight:bold;vertical-align:top;">httponly</td><td style="vertical-align:top;">:</td><td><div></div></td></tr><tr><td style="font-weight:bold;vertical-align:top;">max-age</td><td style="vertical-align:top;">:</td><td><div></div></td></tr><tr><td style="font-weight:bold;vertical-align:top;">path</td><td style="vertical-align:top;">:</td><td><div>/</div></td></tr><tr><td style="font-weight:bold;vertical-align:top;">secure</td><td style="vertical-align:top;">:</td><td><div></div></td></tr><tr><td style="font-weight:bold;vertical-align:top;">version</td><td style="vertical-align:top;">:</td><td><div></div></td></tr></table></div></td></tr></table></div></td></tr><tr><td style="font-weight:bold;vertical-align:top;">delimiters</td><td style="vertical-align:top;">:</td><td><div><table><tr><td><div>{{</div></td></tr><tr><td><div>}}</div></td></tr></table></div></td></tr><tr><td style="font-weight:bold;vertical-align:top;">files</td><td style="vertical-align:top;">:</td><td><div><table></table></div></td></tr><tr><td style="font-weight:bold;vertical-align:top;">flash</td><td style="vertical-align:top;">:</td><td><div></div></td></tr><tr><td style="font-weight:bold;vertical-align:top;">form_label_separator</td><td style="vertical-align:top;">:</td><td><div></div></td></tr><tr><td style="font-weight:bold;vertical-align:top;">formstyle</td><td style="vertical-align:top;">:</td><td><div>bootstrap3_inline</div></td></tr><tr><td style="font-weight:bold;vertical-align:top;">generic_patterns</td><td style="vertical-align:top;">:</td><td><div><table><tr><td><div>*</div></td></tr></table></div></td></tr><tr><td style="font-weight:bold;vertical-align:top;">google_analytics_id</td><td style="vertical-align:top;">:</td><td><div>None</div></td></tr><tr><td style="font-weight:bold;vertical-align:top;">headers</td><td style="vertical-align:top;">:</td><td><div><table><tr><td style="font-weight:bold;vertical-align:top;">X-Powered-By</td><td style="vertical-align:top;">:</td><td><div>web2py</div></td></tr></table></div></td></tr><tr><td style="font-weight:bold;vertical-align:top;">logo</td><td style="vertical-align:top;">:</td><td><div><a class="navbar-brand" href="http://www.web2py.com/" id="web2py-logo"><b>web<span>2</span>py</b>&trade;&nbsp;</a></div></td></tr><tr><td style="font-weight:bold;vertical-align:top;">menu</td><td style="vertical-align:top;">:</td><td><div><table><tr><td><div><table><tr><td><div>Home</div></td></tr><tr><td><div>False</div></td></tr><tr><td><div>/imdbtvseries/default/index</div></td></tr><tr><td><div><table></table></div></td></tr></table></div></td></tr><tr><td><div><table><tr><td><div>My Sites</div></td></tr><tr><td><div>False</div></td></tr><tr><td><div>/admin/default/site</div></td></tr></table></div></td></tr><tr><td><div><table><tr><td><div>This App</div></td></tr><tr><td><div>False</div></td></tr><tr><td><div>#</div></td></tr><tr><td><div><table><tr><td><div><table><tr><td><div>Design</div></td></tr><tr><td><div>False</div></td></tr><tr><td><div>/admin/default/design/imdbtvseries</div></td></tr></table></div></td></tr><tr><td><div><li class="divider"></li></div></td></tr><tr><td><div><table><tr><td><div>Controller</div></td></tr><tr><td><div>False</div></td></tr><tr><td><div>/admin/default/edit/imdbtvseries/controllers/default.py</div></td></tr></table></div></td></tr><tr><td><div><table><tr><td><div>View</div></td></tr><tr><td><div>False</div></td></tr><tr><td><div>/admin/default/edit/imdbtvseries/views/default/search.html</div></td></tr></table></div></td></tr><tr><td><div><table><tr><td><div>DB Model</div></td></tr><tr><td><div>False</div></td></tr><tr><td><div>/admin/default/edit/imdbtvseries/models/db.py</div></td></tr></table></div></td></tr><tr><td><div><table><tr><td><div>Menu Model</div></td></tr><tr><td><div>False</div></td></tr><tr><td><div>/admin/default/edit/imdbtvseries/models/menu.py</div></td></tr></table></div></td></tr><tr><td><div><table><tr><td><div>Config.ini</div></td></tr><tr><td><div>False</div></td></tr><tr><td><div>/admin/default/edit/imdbtvseries/private/appconfig.ini</div></td></tr></table></div></td></tr><tr><td><div><table><tr><td><div>Layout</div></td></tr><tr><td><div>False</div></td></tr><tr><td><div>/admin/default/edit/imdbtvseries/views/layout.html</div></td></tr></table></div></td></tr><tr><td><div><table><tr><td><div>Stylesheet</div></td></tr><tr><td><div>False</div></td></tr><tr><td><div>/admin/default/edit/imdbtvseries/static/css/web2py-bootstrap3.css</div></td></tr></table></div></td></tr><tr><td><div><table><tr><td><div>Database</div></td></tr><tr><td><div>False</div></td></tr><tr><td><div>/imdbtvseries/appadmin/index</div></td></tr></table></div></td></tr><tr><td><div><table><tr><td><div>Errors</div></td></tr><tr><td><div>False</div></td></tr><tr><td><div>/admin/default/errors/imdbtvseries</div></td></tr></table></div></td></tr><tr><td><div><table><tr><td><div>About</div></td></tr><tr><td><div>False</div></td></tr><tr><td><div>/admin/default/about/imdbtvseries</div></td></tr></table></div></td></tr></table></div></td></tr></table></div></td></tr><tr><td><div><table><tr><td><div>web2py.com</div></td></tr><tr><td><div>False</div></td></tr><tr><td><div>#</div></td></tr><tr><td><div><table><tr><td><div><table><tr><td><div>Download</div></td></tr><tr><td><div>False</div></td></tr><tr><td><div>http://www.web2py.com/examples/default/download</div></td></tr></table></div></td></tr><tr><td><div><table><tr><td><div>Support</div></td></tr><tr><td><div>False</div></td></tr><tr><td><div>http://www.web2py.com/examples/default/support</div></td></tr></table></div></td></tr><tr><td><div><table><tr><td><div>Demo</div></td></tr><tr><td><div>False</div></td></tr><tr><td><div>http://web2py.com/demo_admin</div></td></tr></table></div></td></tr><tr><td><div><table><tr><td><div>Quick Examples</div></td></tr><tr><td><div>False</div></td></tr><tr><td><div>http://web2py.com/examples/default/examples</div></td></tr></table></div></td></tr><tr><td><div><table><tr><td><div>FAQ</div></td></tr><tr><td><div>False</div></td></tr><tr><td><div>http://web2py.com/AlterEgo</div></td></tr></table></div></td></tr><tr><td><div><table><tr><td><div>Videos</div></td></tr><tr><td><div>False</div></td></tr><tr><td><div>http://www.web2py.com/examples/default/videos/</div></td></tr></table></div></td></tr><tr><td><div><table><tr><td><div>Free Applications</div></td></tr><tr><td><div>False</div></td></tr><tr><td><div>http://web2py.com/appliances</div></td></tr></table></div></td></tr><tr><td><div><table><tr><td><div>Plugins</div></td></tr><tr><td><div>False</div></td></tr><tr><td><div>http://web2py.com/plugins</div></td></tr></table></div></td></tr><tr><td><div><table><tr><td><div>Recipes</div></td></tr><tr><td><div>False</div></td></tr><tr><td><div>http://web2pyslices.com/</div></td></tr></table></div></td></tr></table></div></td></tr></table></div></td></tr><tr><td><div><table><tr><td><div>Documentation</div></td></tr><tr><td><div>False</div></td></tr><tr><td><div>#</div></td></tr><tr><td><div><table><tr><td><div><table><tr><td><div>Online book</div></td></tr><tr><td><div>False</div></td></tr><tr><td><div>http://www.web2py.com/book</div></td></tr></table></div></td></tr><tr><td><div><li class="divider"></li></div></td></tr><tr><td><div><table><tr><td><div>Preface</div></td></tr><tr><td><div>False</div></td></tr><tr><td><div>http://www.web2py.com/book/default/chapter/00</div></td></tr></table></div></td></tr><tr><td><div><table><tr><td><div>Introduction</div></td></tr><tr><td><div>False</div></td></tr><tr><td><div>http://www.web2py.com/book/default/chapter/01</div></td></tr></table></div></td></tr><tr><td><div><table><tr><td><div>Python</div></td></tr><tr><td><div>False</div></td></tr><tr><td><div>http://www.web2py.com/book/default/chapter/02</div></td></tr></table></div></td></tr><tr><td><div><table><tr><td><div>Overview</div></td></tr><tr><td><div>False</div></td></tr><tr><td><div>http://www.web2py.com/book/default/chapter/03</div></td></tr></table></div></td></tr><tr><td><div><table><tr><td><div>The Core</div></td></tr><tr><td><div>False</div></td></tr><tr><td><div>http://www.web2py.com/book/default/chapter/04</div></td></tr></table></div></td></tr><tr><td><div><table><tr><td><div>The Views</div></td></tr><tr><td><div>False</div></td></tr><tr><td><div>http://www.web2py.com/book/default/chapter/05</div></td></tr></table></div></td></tr><tr><td><div><table><tr><td><div>Database</div></td></tr><tr><td><div>False</div></td></tr><tr><td><div>http://www.web2py.com/book/default/chapter/06</div></td></tr></table></div></td></tr><tr><td><div><table><tr><td><div>Forms and Validators</div></td></tr><tr><td><div>False</div></td></tr><tr><td><div>http://www.web2py.com/book/default/chapter/07</div></td></tr></table></div></td></tr><tr><td><div><table><tr><td><div>Email and SMS</div></td></tr><tr><td><div>False</div></td></tr><tr><td><div>http://www.web2py.com/book/default/chapter/08</div></td></tr></table></div></td></tr><tr><td><div><table><tr><td><div>Access Control</div></td></tr><tr><td><div>False</div></td></tr><tr><td><div>http://www.web2py.com/book/default/chapter/09</div></td></tr></table></div></td></tr><tr><td><div><table><tr><td><div>Services</div></td></tr><tr><td><div>False</div></td></tr><tr><td><div>http://www.web2py.com/book/default/chapter/10</div></td></tr></table></div></td></tr><tr><td><div><table><tr><td><div>Ajax Recipes</div></td></tr><tr><td><div>False</div></td></tr><tr><td><div>http://www.web2py.com/book/default/chapter/11</div></td></tr></table></div></td></tr><tr><td><div><table><tr><td><div>Components and Plugins</div></td></tr><tr><td><div>False</div></td></tr><tr><td><div>http://www.web2py.com/book/default/chapter/12</div></td></tr></table></div></td></tr><tr><td><div><table><tr><td><div>Deployment Recipes</div></td></tr><tr><td><div>False</div></td></tr><tr><td><div>http://www.web2py.com/book/default/chapter/13</div></td></tr></table></div></td></tr><tr><td><div><table><tr><td><div>Other Recipes</div></td></tr><tr><td><div>False</div></td></tr><tr><td><div>http://www.web2py.com/book/default/chapter/14</div></td></tr></table></div></td></tr><tr><td><div><table><tr><td><div>Helping web2py</div></td></tr><tr><td><div>False</div></td></tr><tr><td><div>http://www.web2py.com/book/default/chapter/15</div></td></tr></table></div></td></tr><tr><td><div><table><tr><td><div>Buy web2py\'s book</div></td></tr><tr><td><div>False</div></td></tr><tr><td><div>http://stores.lulu.com/web2py</div></td></tr></table></div></td></tr></table></div></td></tr></table></div></td></tr><tr><td><div><table><tr><td><div>Community</div></td></tr><tr><td><div>False</div></td></tr><tr><td><div>None</div></td></tr><tr><td><div><table><tr><td><div><table><tr><td><div>Groups</div></td></tr><tr><td><div>False</div></td></tr><tr><td><div>http://www.web2py.com/examples/default/usergroups</div></td></tr></table></div></td></tr><tr><td><div><table><tr><td><div>Twitter</div></td></tr><tr><td><div>False</div></td></tr><tr><td><div>http://twitter.com/web2py</div></td></tr></table></div></td></tr><tr><td><div><table><tr><td><div>Live Chat</div></td></tr><tr><td><div>False</div></td></tr><tr><td><div>http://webchat.freenode.net/?channels=web2py</div></td></tr></table></div></td></tr></table></div></td></tr></table></div></td></tr></table></div></td></tr><tr><td style="font-weight:bold;vertical-align:top;">meta</td><td style="vertical-align:top;">:</td><td><div><table><tr><td style="font-weight:bold;vertical-align:top;">author</td><td style="vertical-align:top;">:</td><td><div>Your Name &lt;you@example.com&gt;</div></td></tr><tr><td style="font-weight:bold;vertical-align:top;">description</td><td style="vertical-align:top;">:</td><td><div>a cool new app</div></td></tr><tr><td style="font-weight:bold;vertical-align:top;">generator</td><td style="vertical-align:top;">:</td><td><div>Web2py Web Framework</div></td></tr><tr><td style="font-weight:bold;vertical-align:top;">keywords</td><td style="vertical-align:top;">:</td><td><div>web2py, python, framework</div></td></tr></table></div></td></tr><tr><td style="font-weight:bold;vertical-align:top;">models_to_run</td><td style="vertical-align:top;">:</td><td><div><table><tr><td><div>^\\w+\\.py$</div></td></tr><tr><td><div>^default/\\w+\\.py$</div></td></tr><tr><td><div>^default/search/\\w+\\.py$</div></td></tr></table></div></td></tr><tr><td style="font-weight:bold;vertical-align:top;">postprocessing</td><td style="vertical-align:top;">:</td><td><div><table></table></div></td></tr><tr><td style="font-weight:bold;vertical-align:top;">session_client</td><td style="vertical-align:top;">:</td><td><div>127.0.0.1</div></td></tr><tr><td style="font-weight:bold;vertical-align:top;">session_cookie_compression_level</td><td style="vertical-align:top;">:</td><td><div>None</div></td></tr><tr><td style="font-weight:bold;vertical-align:top;">session_cookie_expires</td><td style="vertical-align:top;">:</td><td><div>None</div></td></tr><tr><td style="font-weight:bold;vertical-align:top;">session_data_name</td><td style="vertical-align:top;">:</td><td><div>session_data_imdbtvseries</div></td></tr><tr><td style="font-weight:bold;vertical-align:top;">session_file</td><td style="vertical-align:top;">:</td><td><div>None</div></td></tr><tr><td style="font-weight:bold;vertical-align:top;">session_filename</td><td style="vertical-align:top;">:</td><td><div>/usr/share/web2py/applications/imdbtvseries/sessions/127.0.0.1-5740b7c7-5ef6-4d59-8346-ba69816f3389</div></td></tr><tr><td style="font-weight:bold;vertical-align:top;">session_hash</td><td style="vertical-align:top;">:</td><td><div>c0762cbf4baf7f9af97c051e7fcb8083</div></td></tr><tr><td style="font-weight:bold;vertical-align:top;">session_id</td><td style="vertical-align:top;">:</td><td><div>127.0.0.1-5740b7c7-5ef6-4d59-8346-ba69816f3389</div></td></tr><tr><td style="font-weight:bold;vertical-align:top;">session_id_name</td><td style="vertical-align:top;">:</td><td><div>session_id_imdbtvseries</div></td></tr><tr><td style="font-weight:bold;vertical-align:top;">session_masterapp</td><td style="vertical-align:top;">:</td><td><div>imdbtvseries</div></td></tr><tr><td style="font-weight:bold;vertical-align:top;">session_new</td><td style="vertical-align:top;">:</td><td><div>True</div></td></tr><tr><td style="font-weight:bold;vertical-align:top;">session_storage_type</td><td style="vertical-align:top;">:</td><td><div>file</div></td></tr><tr><td style="font-weight:bold;vertical-align:top;">status</td><td style="vertical-align:top;">:</td><td><div>200</div></td></tr><tr><td style="font-weight:bold;vertical-align:top;">subtitle</td><td style="vertical-align:top;">:</td><td><div></div></td></tr><tr><td style="font-weight:bold;vertical-align:top;">title</td><td style="vertical-align:top;">:</td><td><div>Imdbtvseries</div></td></tr><tr><td style="font-weight:bold;vertical-align:top;">view</td><td style="vertical-align:top;">:</td><td><div>default/search.html</div></td></tr></table></div>'
tRp128
sS'locals'
p129
(dp130
S'Service'
p131
S"<class 'gluon.tools.Service'>"
p132
sS'OBJECT'
p133
S"<class 'gluon.html.OBJECT'>"
p134
sS'SQLDB'
p135
S"<class 'pydal.base.DAL'>"
p136
sg121
S'<Storage {}>'
p137
sS'LINK'
p138
S"<class 'gluon.html.LINK'>"
p139
sS'urllib'
p140
S"<module 'urllib' from '/usr/lib/python2.7/urllib.pyc'>"
p141
sS'BR'
p142
S"<class 'gluon.html.BR'>"
p143
sS'local_import'
p144
S'<function <lambda>>'
p145
sS'OPTGROUP'
p146
S"<class 'gluon.html.OPTGROUP'>"
p147
sS'__package__'
p148
S'None'
p149
sS'PRE'
p150
S"<class 'gluon.html.PRE'>"
p151
sS'IS_INT_IN_RANGE'
p152
S"<class 'gluon.validators.IS_INT_IN_RANGE'>"
p153
sS'IS_LOWER'
p154
S"<class 'gluon.validators.IS_LOWER'>"
p155
sS'IS_STRONG'
p156
S"<class 'gluon.validators.IS_STRONG'>"
p157
sS'cache'
p158
S'<gluon.cache.Cache object>'
p159
sS'IS_IN_DB'
p160
S"<class 'gluon.validators.IS_IN_DB'>"
p161
sS'TAG'
p162
S'<gluon.html.__TAG__ object>'
p163
sS'SQLField'
p164
S"<class 'pydal.objects.Field'>"
p165
sS'mail'
p166
S'<gluon.tools.Mail object>'
p167
sS'BODY'
p168
S"<class 'gluon.html.BODY'>"
p169
sS'IS_DATE_IN_RANGE'
p170
S"<class 'gluon.validators.IS_DATE_IN_RANGE'>"
p171
sS'IFRAME'
p172
S"<class 'gluon.html.IFRAME'>"
p173
sS'URL'
p174
S'<function URL>'
p175
sS'__file__'
p176
S"'/usr/share/web2py/applications/imdbtvseries/views/default/search.html'"
p177
sS'db'
p178
S'<DAL uri="sqlite://storage.sqlite">'
p179
sS'auth'
p180
S'<gluon.tools.Auth object>'
p181
sS'P'
S"<class 'gluon.html.P'>"
p182
sS'TFOOT'
p183
S"<class 'gluon.html.TFOOT'>"
p184
sS'XHTML'
p185
S"<class 'gluon.html.XHTML'>"
p186
sS'ON'
p187
S'True'
p188
sS'OL'
p189
S"<class 'gluon.html.OL'>"
p190
sS'TEXTAREA'
p191
S"<class 'gluon.html.TEXTAREA'>"
p192
sS'MENU'
p193
S"<class 'gluon.html.MENU'>"
p194
sS'search_query'
p195
S"'rick'"
p196
sS'IS_IMAGE'
p197
S"<class 'gluon.validators.IS_IMAGE'>"
p198
sS'EM'
p199
S"<class 'gluon.html.EM'>"
p200
sS'CODE'
p201
S"<class 'gluon.html.CODE'>"
p202
sS'HTTP'
p203
S"<class 'gluon.http.HTTP'>"
p204
sS'HR'
p205
S"<class 'gluon.html.HR'>"
p206
sS'IS_DATETIME'
p207
S"<class 'gluon.validators.IS_DATETIME'>"
p208
sS'STYLE'
p209
S"<class 'gluon.html.STYLE'>"
p210
sS'LABEL'
p211
S"<class 'gluon.html.LABEL'>"
p212
sS'CLEANUP'
p213
S"<class 'gluon.validators.CLEANUP'>"
p214
sS'plugins'
p215
S'<gluon.tools.PluginManager object>'
p216
sS'SELECT'
p217
S"<class 'gluon.html.SELECT'>"
p218
sS'CENTER'
p219
S"<class 'gluon.html.CENTER'>"
p220
sS'Auth'
p221
S"<class 'gluon.tools.Auth'>"
p222
sS'DEVELOPMENT_MENU'
p223
g188
sS'__builtins__'
p224
S"{'ArithmeticError': <type 'exceptions.ArithmeticError'>, 'AssertionError': <type 'exceptions.AssertionError'>, 'AttributeError': <type 'exceptions.AttributeError'>, 'BaseException': <type 'exceptions.BaseException'>, 'BufferError': <type 'exceptions.BufferError'>, 'BytesWarning': <type 'exceptions.BytesWarning'>, 'DeprecationWarning': <type 'exceptions.DeprecationWarning'>, 'EOFError': <type 'exceptions.EOFError'>, 'Ellipsis': Ellipsis, 'EnvironmentError': <type 'exceptions.EnvironmentError'>, ...}"
p225
sS'HTML'
p226
S"<class 'gluon.html.HTML'>"
p227
sS'SQLFORM'
p228
S"<class 'gluon.sqlhtml.SQLFORM'>"
p229
sS'LOAD'
p230
S'<function LOAD>'
p231
sS'redirect'
p232
S'<function redirect>'
p233
sS'FIELDSET'
p234
S"<class 'gluon.html.FIELDSET'>"
p235
sS'IS_EQUAL_TO'
p236
S"<class 'gluon.validators.IS_EQUAL_TO'>"
p237
sS'search_result_url'
p238
S"'http://127.0.0.1:8983/solr/imdb/select?indent=on&q=rick&rows=50&start=0&wt=json'"
p239
sS'embed64'
p240
S'<function embed64>'
p241
sS'IS_LIST_OF'
p242
S"<class 'gluon.validators.IS_LIST_OF'>"
p243
sS'INPUT'
p244
S"<class 'gluon.html.INPUT'>"
p245
sS'EMBED'
p246
S"<class 'gluon.html.EMBED'>"
p247
sS'_'
S'<function _>'
p248
sS'myconf'
p249
S"{'forms': {'formstyle': 'bootstrap3_inline', 'se...'you@gmail.com', 'server': 'smtp.gmail.com:587'}}"
p250
sS'H2'
p251
S"<class 'gluon.html.H2'>"
p252
sS'H3'
p253
S"<class 'gluon.html.H3'>"
p254
sS'AppConfig'
p255
S'<function AppConfig>'
p256
sS'H1'
p257
S"<class 'gluon.html.H1'>"
p258
sS'H6'
p259
S"<class 'gluon.html.H6'>"
p260
sS'H4'
p261
S"<class 'gluon.html.H4'>"
p262
sS'H5'
p263
S"<class 'gluon.html.H5'>"
p264
sS'UL'
p265
S"<class 'gluon.html.UL'>"
p266
sS'IS_UPPER'
p267
S"<class 'gluon.validators.IS_UPPER'>"
p268
sS'xmlescape'
p269
S'<function xmlescape>'
p270
sS'IS_TIME'
p271
S"<class 'gluon.validators.IS_TIME'>"
p272
sS'OPTION'
p273
S"<class 'gluon.html.OPTION'>"
p274
sS'TITLE'
p275
S"<class 'gluon.html.TITLE'>"
p276
sS'CRYPT'
p277
S"<class 'gluon.validators.CRYPT'>"
p278
sS'IS_EMPTY_OR'
p279
S"<class 'gluon.validators.IS_EMPTY_OR'>"
p280
sS'MARKMIN'
p281
S"<class 'gluon.html.MARKMIN'>"
p282
sS'__name__'
p283
S"'__restricted__'"
p284
sS'STRONG'
p285
S"<class 'gluon.html.STRONG'>"
p286
sS'COL'
p287
S"<class 'gluon.html.COL'>"
p288
sS'service'
p289
S'<gluon.tools.Service object>'
p290
sS'SCRIPT'
p291
S"<class 'gluon.html.SCRIPT'>"
p292
sS'json'
p293
S"<module 'json' from '/usr/lib/python2.7/json/__init__.pyc'>"
p294
sS'TABLE'
p295
S"<class 'gluon.html.TABLE'>"
p296
sS'IS_IPV4'
p297
S"<class 'gluon.validators.IS_IPV4'>"
p298
sS'IS_LENGTH'
p299
S"<class 'gluon.validators.IS_LENGTH'>"
p300
sS'IS_IPV6'
p301
S"<class 'gluon.validators.IS_IPV6'>"
p302
sS'XML'
p303
S"<class 'gluon.html.XML'>"
p304
sS'B'
S"<class 'gluon.html.B'>"
p305
sS'search_result'
p306
S'{u\'response\': {u\'docs\': [{u\'_version_\': 1562302563276029952, u\'genre\': [u\'Animation\', u\'Adventure\', u\'Comedy\'], u\'id\': u\'597648d5-2fef-44a0-97c7-b948e78cb628\', u\'image\': [u\'https://images-na.ssl-images-amazon.com/images...ZTgwMzQ1MTg3MDE@._V1_UY268_CR2,0,182,268_AL_.jpg\'], u\'name\': u\'Rick and Morty\', u\'rate\': [9.6], u\'summary\': [u\'An animated series that follows the exploits of a super scientist and his not so bright grandson.\'], u\'vote\': [107334], u\'year\': [2013]}, {u\'_version_\': 1562302563665051650, u\'genre\': [u\'Comedy\', u\'Crime\', u\'Drama\'], u\'id\': u\'938a1b06-ae07-4716-aaac-9e0df6679722\', u\'image\': [u\'https://images-na.ssl-images-amazon.com/images...ZTgwMDAwMzg5NjE@._V1_UX182_CR0,0,182,268_AL_.jpg\'], u\'name\': u\'Castle\', u\'rate\': [9.6], u\'summary\': [u\'After a serial killer imitates the plots of hi...micide investigation team for research purposes.\'], u\'vote\': [122612], u\'year\': [2009]}, {u\'_version_\': 1562302563711188994, u\'genre\': [u\'Drama\', u\'Horror\', u\'Thriller\'], u\'id\': u\'9d5be3dc-03b8-4654-b15e-62fb356a821d\', u\'image\': [u\'https://images-na.ssl-images-amazon.com/images...ZTgwNjE1NDU4MDI@._V1_UX182_CR0,0,182,268_AL_.jpg\'], u\'name\': u\'The Walking Dead\', u\'rate\': [9.7], u\'summary\': [u\'Sheriff Deputy Rick Grimes wakes up from a com...nd must lead a group of survivors to stay alive.\'], u\'vote\': [681946], u\'year\': [2010]}, {u\'_version_\': 1562302563790880769, u\'genre\': [u\'Action\', u\'Crime\', u\'Drama\'], u\'id\': u\'45d7ad4b-5af1-4810-a9fe-baf11ac1f68d\', u\'image\': [u\'https://images-na.ssl-images-amazon.com/images...ZTcwNjExNjczMQ@@._V1_UY268_CR4,0,182,268_AL_.jpg\'], u\'name\': u\'Hunter\', u\'rate\': [8.2], u\'summary\': [u"Rick Hunter is a renegade cop who breaks the r... out to crack down on L.A.\'s slimiest criminals."], u\'vote\': [2562], u\'year\': [1984]}], u\'numFound\': 4, u\'start\': 0}, u\'responseHeader\': {u\'QTime\': 0, u\'params\': {u\'indent\': u\'on\', u\'q\': u\'rick\', u\'rows\': u\'50\', u\'start\': u\'0\', u\'wt\': u\'json\'}, u\'status\': 0}}'
p307
sS'IMG'
p308
S"<class 'gluon.html.IMG'>"
p309
sS'SQLTABLE'
p310
S"<class 'gluon.sqlhtml.SQLTABLE'>"
p311
sS'IS_MATCH'
p312
S"<class 'gluon.validators.IS_MATCH'>"
p313
sS'IS_ALPHANUMERIC'
p314
S"<class 'gluon.validators.IS_ALPHANUMERIC'>"
p315
sS'SPAN'
p316
S"<class 'gluon.html.SPAN'>"
p317
sS'IS_JSON'
p318
S"<class 'gluon.validators.IS_JSON'>"
p319
sS'IS_IPADDRESS'
p320
S"<class 'gluon.validators.IS_IPADDRESS'>"
p321
sS'IS_SLUG'
p322
S"<class 'gluon.validators.IS_SLUG'>"
p323
sS'BEAUTIFY'
p324
S"<class 'gluon.html.BEAUTIFY'>"
p325
sS'META'
p326
S"<class 'gluon.html.META'>"
p327
sS'BUTTON'
p328
S"<class 'gluon.html.BUTTON'>"
p329
sS'IS_DATE'
p330
S"<class 'gluon.validators.IS_DATE'>"
p331
sS'IS_EMAIL'
p332
S"<class 'gluon.validators.IS_EMAIL'>"
p333
sS'IS_NOT_EMPTY'
p334
S"<class 'gluon.validators.IS_NOT_EMPTY'>"
p335
sS'IS_FLOAT_IN_RANGE'
p336
S"<class 'gluon.validators.IS_FLOAT_IN_RANGE'>"
p337
sS'TBODY'
p338
S"<class 'gluon.html.TBODY'>"
p339
sS'CAT'
p340
S"<class 'gluon.html.CAT'>"
p341
sS'Field'
p342
S"<class 'pydal.objects.Field'>"
p343
sS'IS_LIST_OF_EMAILS'
p344
S"<class 'gluon.validators.IS_LIST_OF_EMAILS'>"
p345
sS'DIV'
p346
S"<class 'gluon.html.DIV'>"
p347
sS'LEGEND'
p348
S"<class 'gluon.html.LEGEND'>"
p349
sS'COLGROUP'
p350
S"<class 'gluon.html.COLGROUP'>"
p351
sS'DAL'
p352
S"<class 'pydal.base.DAL'>"
p353
sS'ASSIGNJS'
p354
S'<function ASSIGNJS>'
p355
sS'TR'
p356
S"<class 'gluon.html.TR'>"
p357
sS'LI'
p358
S"<class 'gluon.html.LI'>"
p359
sS'TH'
p360
S"<class 'gluon.html.TH'>"
p361
sS'search_response'
p362
S'<addinfourl at 140364033306496 whose fp = <socket._fileobject object>>'
p363
sS'TD'
p364
S"<class 'gluon.html.TD'>"
p365
sS'PluginManager'
p366
S"<class 'gluon.tools.PluginManager'>"
p367
sS'IS_URL'
p368
S"<class 'gluon.validators.IS_URL'>"
p369
sS'A'
S"<class 'gluon.html.A'>"
p370
sS'HEAD'
p371
S"<class 'gluon.html.HEAD'>"
p372
sS'IS_DATETIME_IN_RANGE'
p373
S"<class 'gluon.validators.IS_DATETIME_IN_RANGE'>"
p374
sS'FORM'
p375
S"<class 'gluon.html.FORM'>"
p376
sS'I'
S"<class 'gluon.html.I'>"
p377
sS'IS_NOT_IN_DB'
p378
S"<class 'gluon.validators.IS_NOT_IN_DB'>"
p379
sg127
S"<Storage {'body': <cStringIO.StringO object at 0... 0x7fa90c3f8050>, 'view': 'default/search.html'}>"
p380
sS'THEAD'
p381
S"<class 'gluon.html.THEAD'>"
p382
sS'ANY_OF'
p383
S"<class 'gluon.validators.ANY_OF'>"
p384
sS'IS_NULL_OR'
p385
S"<class 'gluon.validators.IS_EMPTY_OR'>"
p386
sS'i'
S"{u'_version_': 1562302563276029952, u'genre': [u'Animation', u'Adventure', u'Comedy'], u'id': u'597648d5-2fef-44a0-97c7-b948e78cb628', u'image': [u'https://images-na.ssl-images-amazon.com/images...ZTgwMzQ1MTg3MDE@._V1_UY268_CR2,0,182,268_AL_.jpg'], u'name': u'Rick and Morty', u'rate': [9.6], u'summary': [u'An animated series that follows the exploits of a super scientist and his not so bright grandson.'], u'vote': [107334], u'year': [2013]}"
p387
sg56
S"<Storage {'_vars': <Storage {'q': 'rick'}>, 'fun... '/usr/share/web2py/applications/imdbtvseries/'}>"
p388
sS'IS_EXPR'
p389
S"<class 'gluon.validators.IS_EXPR'>"
p390
sS'T'
S'<gluon.languages.translator object>'
p391
sS'IS_IN_SET'
p392
S"<class 'gluon.validators.IS_IN_SET'>"
p393
sS'IS_UPLOAD_FILENAME'
p394
S"<class 'gluon.validators.IS_UPLOAD_FILENAME'>"
p395
sS'TT'
p396
S"<class 'gluon.html.TT'>"
p397
sS'IS_DECIMAL_IN_RANGE'
p398
S"<class 'gluon.validators.IS_DECIMAL_IN_RANGE'>"
p399
sssS'traceback'
p400
S'Traceback (most recent call last):\n  File "/usr/share/web2py/gluon/restricted.py", line 227, in restricted\n    exec ccode in environment\n  File "/usr/share/web2py/applications/imdbtvseries/views/default/search.html", line 15, in <module>\n    <li><a href="https://www.instagram.com/chnselim" class="icon fa-instagram" target="_blank"><span class="label">Instagram</span></a></li>\nTypeError: list indices must be integers, not dict\n'
p401
s.